; Function Attrs: mustprogress uwtable
define dso_local void @_ZNK4pbrt14BDPTIntegrator8ToStringB5cxx11Ev(ptr noalias nonnull sret(%"class.std::__cxx11::basic_string") align 8 %agg.result, ptr noundef nonnull align 8 dereferenceable(128) %this) unnamed_addr #1 align 2 personality ptr @__gxx_personality_v0 {
entry:
  %maxDepth = getelementptr inbounds i8, ptr %this, i64 80
  %visualizeStrategies = getelementptr inbounds i8, ptr %this, i64 96
  %visualizeWeights = getelementptr inbounds i8, ptr %this, i64 97
  %regularize = getelementptr inbounds i8, ptr %this, i64 84
  %lightSampler = getelementptr inbounds i8, ptr %this, i64 88
  tail call void @_ZNSt7__cxx1112basic_stringIcSt11char_traitsIcESaIcEEC1Ev(ptr noundef nonnull align 8 dereferenceable(32) %agg.result) #31
  invoke void @_ZN4pbrt6detail21stringPrintfRecursiveIRKiJRKbS5_S5_RKNS_12LightSamplerEEEEvPNSt7__cxx1112basic_stringIcSt11char_traitsIcESaIcEEEPKcOT_DpOT0_(ptr noundef nonnull %agg.result, ptr noundef nonnull @.str.58, ptr noundef nonnull align 4 dereferenceable(4) %maxDepth, ptr noundef nonnull align 1 dereferenceable(1) %visualizeStrategies, ptr noundef nonnull align 1 dereferenceable(1) %visualizeWeights, ptr noundef nonnull align 1 dereferenceable(1) %regularize, ptr noundef nonnull align 8 dereferenceable(8) %lightSampler)
          to label %_ZN4pbrt12StringPrintfIJRKiRKbS4_S4_RKNS_12LightSamplerEEEENSt7__cxx1112basic_stringIcSt11char_traitsIcESaIcEEEPKcDpOT_.exit unwind label %lpad.i

lpad.i:                                           ; preds = %entry
  %0 = landingpad { ptr, i32 }
          cleanup
  tail call void @_ZNSt7__cxx1112basic_stringIcSt11char_traitsIcESaIcEED1Ev(ptr noundef nonnull align 8 dereferenceable(32) %agg.result) #31
  resume { ptr, i32 } %0

_ZN4pbrt12StringPrintfIJRKiRKbS4_S4_RKNS_12LightSamplerEEEENSt7__cxx1112basic_stringIcSt11char_traitsIcESaIcEEEPKcDpOT_.exit: ; preds = %entry
  ret void
}